; Function Attrs: nounwind sspstrong uwtable
define internal range(i64 0, 21) i64 @ossl_sslctx_session_remove(i64 noundef %0, i64 noundef %1) #0 {
  %3 = tail call ptr @rb_check_typeddata(i64 noundef %0, ptr noundef nonnull @ossl_sslctx_type) #9
  %4 = tail call ptr @rb_check_typeddata(i64 noundef %1, ptr noundef nonnull @ossl_ssl_session_type) #9
  %.not = icmp eq ptr %4, null
  br i1 %.not, label %5, label %7

5:                                                ; preds = %2
  %6 = load i64, ptr @rb_eRuntimeError, align 8, !tbaa !10
  tail call void (i64, ptr, ...) @ossl_raise(i64 noundef %6, ptr noundef nonnull @.str.230) #10
  unreachable

7:                                                ; preds = %2
  %8 = tail call i32 @SSL_CTX_remove_session(ptr noundef %3, ptr noundef nonnull %4) #9
  %9 = icmp eq i32 %8, 1
  %10 = select i1 %9, i64 20, i64 0
  ret i64 %10
}